target datalayout = "e-m:e-p270:32:32-p271:32:32-p272:64:64-i64:64-i128:128-f80:128-n8:16:32:64-S128"
target triple = "x86_64-pc-linux-gnu"

@mString_Extend = internal global i64 0, align 8
@i_extend = internal global i64 0, align 8

; Function Attrs: nounwind sspstrong uwtable
define internal i64 @mString_included_s(i64 noundef %0, i64 noundef %1) #0 {
  %3 = alloca i64, align 8
  %4 = alloca i64, align 8
  %5 = alloca i64, align 8
  store i64 %0, ptr %3, align 8, !tbaa !6
  store i64 %1, ptr %4, align 8, !tbaa !6
  call void @llvm.lifetime.start.p0(i64 8, ptr %5) #27
  %6 = load i64, ptr %4, align 8, !tbaa !6
  %7 = load i64, ptr @i_extend, align 8, !tbaa !6
  %8 = load i64, ptr @mString_Extend, align 8, !tbaa !6
  %9 = call i64 (i64, i64, i32, ...) @rb_funcall(i64 noundef %6, i64 noundef %7, i32 noundef 1, i64 noundef %8)
  store i64 %9, ptr %5, align 8, !tbaa !6
  %10 = call i64 @rb_call_super(i32 noundef 1, ptr noundef %4)
  %11 = load i64, ptr %5, align 8, !tbaa !6
  call void @llvm.lifetime.end.p0(i64 8, ptr %5) #27
  ret i64 %11
}