; Function Attrs: nounwind sspstrong uwtable
define internal i64 @mString_included_s(i64 %0, i64 noundef %1) #0 {
  %3 = alloca i64, align 8
  store i64 %1, ptr %3, align 8, !tbaa !6
  %4 = load i64, ptr @i_extend, align 8, !tbaa !6
  %5 = load i64, ptr @mString_Extend, align 8, !tbaa !6
  %6 = tail call i64 (i64, i64, i32, ...) @rb_funcall(i64 noundef %1, i64 noundef %4, i32 noundef 1, i64 noundef %5) #22
  %7 = call i64 @rb_call_super(i32 noundef 1, ptr noundef nonnull %3) #22
  ret i64 %6
}